; Function Attrs: mustprogress uwtable
define noundef zeroext i1 @_ZNK6icu_758numparse4impl15PlusSignMatcher10isDisabledERKNS1_12ParsedNumberE(ptr nocapture noundef nonnull readonly align 8 dereferenceable(81) %this, ptr noundef nonnull align 8 dereferenceable(216) %result) unnamed_addr #0 align 2 {
entry:
  %fAllowTrailing = getelementptr inbounds i8, ptr %this, i64 80
  %0 = load i8, ptr %fAllowTrailing, align 8
  %1 = and i8 %0, 1
  %tobool.not = icmp eq i8 %1, 0
  br i1 %tobool.not, label %land.rhs, label %land.end

land.rhs:                                         ; preds = %entry
  %call = tail call noundef zeroext i1 @_ZNK6icu_758numparse4impl12ParsedNumber10seenNumberEv(ptr noundef nonnull align 8 dereferenceable(216) %result)
  br label %land.end

land.end:                                         ; preds = %land.rhs, %entry
  %2 = phi i1 [ false, %entry ], [ %call, %land.rhs ]
  ret i1 %2
}